; Function Attrs: mustprogress sspstrong uwtable
define internal void @_ZL40__itt_module_load_with_sections_init_3_0P20___itt_module_object(ptr noundef %0) #0 {
  %2 = load volatile i64, ptr getelementptr inbounds nuw (i8, ptr @__itt__ittapi_global, i64 32), align 8, !tbaa !3
  %3 = icmp eq i64 %2, 0
  %4 = load ptr, ptr getelementptr inbounds nuw (i8, ptr @__itt__ittapi_global, i64 136), align 8
  %5 = icmp eq ptr %4, null
  %or.cond = select i1 %3, i1 %5, i1 false
  br i1 %or.cond, label %6, label %7

6:                                                ; preds = %1
  tail call void @ITT_DoOneTimeInitialization()
  br label %7

7:                                                ; preds = %6, %1
  %8 = load ptr, ptr @__itt_module_load_with_sections_ptr__3_0, align 8, !tbaa !21
  %9 = icmp ne ptr %8, null
  %10 = icmp ne ptr %8, @_ZL40__itt_module_load_with_sections_init_3_0P20___itt_module_object
  %or.cond3 = and i1 %9, %10
  %11 = icmp ne ptr %0, null
  %or.cond5 = and i1 %11, %or.cond3
  br i1 %or.cond5, label %12, label %13

12:                                               ; preds = %7
  store i32 1, ptr %0, align 8, !tbaa !37
  tail call void %8(ptr noundef nonnull %0)
  br label %13

13:                                               ; preds = %12, %7
  ret void
}